; Function Attrs: mustprogress nounwind uwtable
define hidden noundef ptr @_ZN16VM_GetOrSetLocal10get_vframeEv(ptr nocapture noundef nonnull readonly align 8 dereferenceable(96) %0) local_unnamed_addr #0 align 2 {
  %2 = alloca %class.RegisterMap, align 8
  %3 = getelementptr inbounds i8, ptr %0, i64 64
  %4 = load ptr, ptr %3, align 8
  %5 = getelementptr inbounds i8, ptr %4, i64 928
  %6 = load volatile ptr, ptr %5, align 8
  %.not10 = icmp eq ptr %6, null
  br i1 %.not10, label %.critedge, label %7

7:                                                ; preds = %1
  call void @_ZN11RegisterMapC1EP10JavaThreadNS_9UpdateMapENS_13ProcessFramesENS_16WalkContinuationE(ptr noundef nonnull align 8 dereferenceable(4983) %2, ptr noundef nonnull %4, i32 noundef 1, i32 noundef 1, i32 noundef 1) #17
  %8 = load ptr, ptr %3, align 8
  %9 = call noundef ptr @_ZN12JvmtiEnvBase28get_cthread_last_java_vframeEP10JavaThreadP11RegisterMap(ptr noundef %8, ptr noundef nonnull %2) #17
  %10 = getelementptr inbounds i8, ptr %0, i64 24
  %.not11 = icmp ne ptr %9, null
  %11 = load i32, ptr %10, align 8
  %12 = icmp sgt i32 %11, 0
  %or.cond12 = select i1 %.not11, i1 %12, i1 false
  br i1 %or.cond12, label %.lr.ph, label %.critedge

.lr.ph:                                           ; preds = %7, %.lr.ph
  %.014 = phi i32 [ %14, %.lr.ph ], [ 0, %7 ]
  %.0613 = phi ptr [ %13, %.lr.ph ], [ %9, %7 ]
  %13 = call noundef ptr @_ZNK6vframe11java_senderEv(ptr noundef nonnull align 8 dereferenceable(5064) %.0613) #17
  %14 = add nuw nsw i32 %.014, 1
  %.not = icmp ne ptr %13, null
  %15 = load i32, ptr %10, align 8
  %16 = icmp slt i32 %14, %15
  %or.cond = select i1 %.not, i1 %16, i1 false
  br i1 %or.cond, label %.lr.ph, label %.critedge, !llvm.loop !21

.critedge:                                        ; preds = %.lr.ph, %7, %1
  %.07 = phi ptr [ null, %1 ], [ %9, %7 ], [ %13, %.lr.ph ]
  ret ptr %.07
}